target datalayout = "e-m:e-p270:32:32-p271:32:32-p272:64:64-i64:64-i128:128-f80:128-n8:16:32:64-S128"
target triple = "x86_64-pc-linux-gnu"

%struct.regmatch_t = type { i32, i32 }

@.str.23 = private unnamed_addr constant [1 x i8] zeroinitializer, align 1
@git_gettext_enabled = external global i32, align 4
@__const.has_epoch_timestamp.stamp_regexp = private unnamed_addr constant [65 x i8] c"^[0-2][0-9]:([0-5][0-9]):00(\\.0+)? ([-+][0-2][0-9]:?[0-5][0-9])\0A\00", align 16
@has_epoch_timestamp.stamp = internal global ptr null, align 8
@.str.148 = private unnamed_addr constant [12 x i8] c"1969-12-31 \00", align 1
@.str.149 = private unnamed_addr constant [12 x i8] c"1970-01-01 \00", align 1
@.str.150 = private unnamed_addr constant [35 x i8] c"Cannot prepare timestamp regexp %s\00", align 1
@.str.151 = private unnamed_addr constant [34 x i8] c"regexec returned %d for input: %s\00", align 1

; Function Attrs: inlinehint nounwind uwtable
define internal ptr @_(ptr noundef %0) #3 {
  %2 = alloca ptr, align 8
  %3 = alloca ptr, align 8
  store ptr %0, ptr %3, align 8, !tbaa !11
  %4 = load ptr, ptr %3, align 8, !tbaa !11
  %5 = load i8, ptr %4, align 1, !tbaa !57
  %6 = icmp ne i8 %5, 0
  br i1 %6, label %8, label %7

7:                                                ; preds = %1
  store ptr @.str.23, ptr %2, align 8
  br label %16

8:                                                ; preds = %1
  %9 = load i32, ptr @git_gettext_enabled, align 4, !tbaa !39
  %10 = icmp ne i32 %9, 0
  br i1 %10, label %13, label %11

11:                                               ; preds = %8
  %12 = load ptr, ptr %3, align 8, !tbaa !11
  store ptr %12, ptr %2, align 8
  br label %16

13:                                               ; preds = %8
  %14 = load ptr, ptr %3, align 8, !tbaa !11
  %15 = call ptr @dcgettext(ptr noundef null, ptr noundef %14, i32 noundef 5) #12
  store ptr %15, ptr %2, align 8
  br label %16

16:                                               ; preds = %13, %11, %7
  %17 = load ptr, ptr %2, align 8
  ret ptr %17
}

; Function Attrs: inlinehint nounwind uwtable
define internal zeroext i1 @skip_prefix(ptr noundef %0, ptr noundef %1, ptr noundef %2) #3 {
  %4 = alloca i1, align 1
  %5 = alloca ptr, align 8
  %6 = alloca ptr, align 8
  %7 = alloca ptr, align 8
  store ptr %0, ptr %5, align 8, !tbaa !11
  store ptr %1, ptr %6, align 8, !tbaa !11
  store ptr %2, ptr %7, align 8, !tbaa !119
  br label %8

8:                                                ; preds = %16, %3
  %9 = load ptr, ptr %6, align 8, !tbaa !11
  %10 = load i8, ptr %9, align 1, !tbaa !57
  %11 = icmp ne i8 %10, 0
  br i1 %11, label %15, label %12

12:                                               ; preds = %8
  %13 = load ptr, ptr %5, align 8, !tbaa !11
  %14 = load ptr, ptr %7, align 8, !tbaa !119
  store ptr %13, ptr %14, align 8, !tbaa !11
  store i1 true, ptr %4, align 1
  br label %27

15:                                               ; preds = %8
  br label %16

16:                                               ; preds = %15
  %17 = load ptr, ptr %5, align 8, !tbaa !11
  %18 = getelementptr inbounds nuw i8, ptr %17, i32 1
  store ptr %18, ptr %5, align 8, !tbaa !11
  %19 = load i8, ptr %17, align 1, !tbaa !57
  %20 = sext i8 %19 to i32
  %21 = load ptr, ptr %6, align 8, !tbaa !11
  %22 = getelementptr inbounds nuw i8, ptr %21, i32 1
  store ptr %22, ptr %6, align 8, !tbaa !11
  %23 = load i8, ptr %21, align 1, !tbaa !57
  %24 = sext i8 %23 to i32
  %25 = icmp eq i32 %20, %24
  br i1 %25, label %8, label %26, !llvm.loop !163

26:                                               ; preds = %16
  store i1 false, ptr %4, align 1
  br label %27

27:                                               ; preds = %26, %12
  %28 = load i1, ptr %4, align 1
  ret i1 %28
}

; Function Attrs: nounwind uwtable
define internal i32 @has_epoch_timestamp(ptr noundef %0) #0 {
  %2 = alloca i32, align 4
  %3 = alloca ptr, align 8
  %4 = alloca [65 x i8], align 16
  %5 = alloca ptr, align 8
  %6 = alloca ptr, align 8
  %7 = alloca ptr, align 8
  %8 = alloca [10 x %struct.regmatch_t], align 16
  %9 = alloca i32, align 4
  %10 = alloca i32, align 4
  %11 = alloca i32, align 4
  %12 = alloca i32, align 4
  %13 = alloca i32, align 4
  %14 = alloca i32, align 4
  store ptr %0, ptr %3, align 8, !tbaa !11
  call void @llvm.lifetime.start.p0(i64 65, ptr %4) #12
  call void @llvm.memcpy.p0.p0.i64(ptr align 16 %4, ptr align 16 @__const.has_epoch_timestamp.stamp_regexp, i64 65, i1 false)
  call void @llvm.lifetime.start.p0(i64 8, ptr %5) #12
  store ptr null, ptr %5, align 8, !tbaa !11
  call void @llvm.lifetime.start.p0(i64 8, ptr %6) #12
  call void @llvm.lifetime.start.p0(i64 8, ptr %7) #12
  call void @llvm.lifetime.start.p0(i64 80, ptr %8) #12
  call void @llvm.lifetime.start.p0(i64 4, ptr %9) #12
  call void @llvm.lifetime.start.p0(i64 4, ptr %10) #12
  call void @llvm.lifetime.start.p0(i64 4, ptr %11) #12
  call void @llvm.lifetime.start.p0(i64 4, ptr %12) #12
  call void @llvm.lifetime.start.p0(i64 4, ptr %13) #12
  %15 = load ptr, ptr %3, align 8, !tbaa !11
  store ptr %15, ptr %6, align 8, !tbaa !11
  br label %16

16:                                               ; preds = %30, %1
  %17 = load ptr, ptr %6, align 8, !tbaa !11
  %18 = load i8, ptr %17, align 1, !tbaa !57
  %19 = sext i8 %18 to i32
  %20 = icmp ne i32 %19, 10
  br i1 %20, label %21, label %33

21:                                               ; preds = %16
  %22 = load ptr, ptr %6, align 8, !tbaa !11
  %23 = load i8, ptr %22, align 1, !tbaa !57
  %24 = sext i8 %23 to i32
  %25 = icmp eq i32 %24, 9
  br i1 %25, label %26, label %29

26:                                               ; preds = %21
  %27 = load ptr, ptr %6, align 8, !tbaa !11
  %28 = getelementptr inbounds i8, ptr %27, i64 1
  store ptr %28, ptr %5, align 8, !tbaa !11
  br label %29

29:                                               ; preds = %26, %21
  br label %30

30:                                               ; preds = %29
  %31 = load ptr, ptr %6, align 8, !tbaa !11
  %32 = getelementptr inbounds nuw i8, ptr %31, i32 1
  store ptr %32, ptr %6, align 8, !tbaa !11
  br label %16, !llvm.loop !220

33:                                               ; preds = %16
  %34 = load ptr, ptr %5, align 8, !tbaa !11
  %35 = icmp ne ptr %34, null
  br i1 %35, label %37, label %36

36:                                               ; preds = %33
  store i32 0, ptr %2, align 4
  store i32 1, ptr %14, align 4
  br label %140

37:                                               ; preds = %33
  %38 = load ptr, ptr %5, align 8, !tbaa !11
  %39 = call zeroext i1 @skip_prefix(ptr noundef %38, ptr noundef @.str.148, ptr noundef %5)
  br i1 %39, label %40, label %41

40:                                               ; preds = %37
  store i32 24, ptr %10, align 4, !tbaa !39
  br label %47

41:                                               ; preds = %37
  %42 = load ptr, ptr %5, align 8, !tbaa !11
  %43 = call zeroext i1 @skip_prefix(ptr noundef %42, ptr noundef @.str.149, ptr noundef %5)
  br i1 %43, label %44, label %45

44:                                               ; preds = %41
  store i32 0, ptr %10, align 4, !tbaa !39
  br label %46

45:                                               ; preds = %41
  store i32 0, ptr %2, align 4
  store i32 1, ptr %14, align 4
  br label %140

46:                                               ; preds = %44
  br label %47

47:                                               ; preds = %46, %40
  %48 = load ptr, ptr @has_epoch_timestamp.stamp, align 8, !tbaa !221
  %49 = icmp ne ptr %48, null
  br i1 %49, label %60, label %50

50:                                               ; preds = %47
  %51 = call ptr @xmalloc(i64 noundef 64)
  store ptr %51, ptr @has_epoch_timestamp.stamp, align 8, !tbaa !221
  %52 = load ptr, ptr @has_epoch_timestamp.stamp, align 8, !tbaa !221
  %53 = getelementptr inbounds [65 x i8], ptr %4, i64 0, i64 0
  %54 = call i32 @regcomp(ptr noundef %52, ptr noundef %53, i32 noundef 1)
  %55 = icmp ne i32 %54, 0
  br i1 %55, label %56, label %59

56:                                               ; preds = %50
  %57 = call ptr @_(ptr noundef @.str.150)
  %58 = getelementptr inbounds [65 x i8], ptr %4, i64 0, i64 0
  call void (ptr, ...) @warning(ptr noundef %57, ptr noundef %58)
  store i32 0, ptr %2, align 4
  store i32 1, ptr %14, align 4
  br label %140

59:                                               ; preds = %50
  br label %60

60:                                               ; preds = %59, %47
  %61 = load ptr, ptr @has_epoch_timestamp.stamp, align 8, !tbaa !221
  %62 = load ptr, ptr %5, align 8, !tbaa !11
  %63 = getelementptr inbounds [10 x %struct.regmatch_t], ptr %8, i64 0, i64 0
  %64 = call i32 @regexec(ptr noundef %61, ptr noundef %62, i64 noundef 10, ptr noundef %63, i32 noundef 0)
  store i32 %64, ptr %13, align 4, !tbaa !39
  %65 = load i32, ptr %13, align 4, !tbaa !39
  %66 = icmp ne i32 %65, 0
  br i1 %66, label %67, label %75

67:                                               ; preds = %60
  %68 = load i32, ptr %13, align 4, !tbaa !39
  %69 = icmp ne i32 %68, 1
  br i1 %69, label %70, label %74

70:                                               ; preds = %67
  %71 = call ptr @_(ptr noundef @.str.151)
  %72 = load i32, ptr %13, align 4, !tbaa !39
  %73 = load ptr, ptr %5, align 8, !tbaa !11
  call void (ptr, ...) @warning(ptr noundef %71, i32 noundef %72, ptr noundef %73)
  br label %74

74:                                               ; preds = %70, %67
  store i32 0, ptr %2, align 4
  store i32 1, ptr %14, align 4
  br label %140

75:                                               ; preds = %60
  %76 = load ptr, ptr %5, align 8, !tbaa !11
  %77 = call i64 @strtol(ptr noundef %76, ptr noundef null, i32 noundef 10) #12
  %78 = trunc i64 %77 to i32
  store i32 %78, ptr %11, align 4, !tbaa !39
  %79 = load ptr, ptr %5, align 8, !tbaa !11
  %80 = getelementptr inbounds [10 x %struct.regmatch_t], ptr %8, i64 0, i64 1
  %81 = getelementptr inbounds nuw %struct.regmatch_t, ptr %80, i32 0, i32 0
  %82 = load i32, ptr %81, align 8, !tbaa !223
  %83 = sext i32 %82 to i64
  %84 = getelementptr inbounds i8, ptr %79, i64 %83
  %85 = call i64 @strtol(ptr noundef %84, ptr noundef null, i32 noundef 10) #12
  %86 = trunc i64 %85 to i32
  store i32 %86, ptr %12, align 4, !tbaa !39
  %87 = load ptr, ptr %5, align 8, !tbaa !11
  %88 = getelementptr inbounds [10 x %struct.regmatch_t], ptr %8, i64 0, i64 3
  %89 = getelementptr inbounds nuw %struct.regmatch_t, ptr %88, i32 0, i32 0
  %90 = load i32, ptr %89, align 8, !tbaa !223
  %91 = sext i32 %90 to i64
  %92 = getelementptr inbounds i8, ptr %87, i64 %91
  %93 = getelementptr inbounds i8, ptr %92, i64 1
  %94 = call i64 @strtol(ptr noundef %93, ptr noundef %7, i32 noundef 10) #12
  %95 = trunc i64 %94 to i32
  store i32 %95, ptr %9, align 4, !tbaa !39
  %96 = load ptr, ptr %7, align 8, !tbaa !11
  %97 = load i8, ptr %96, align 1, !tbaa !57
  %98 = sext i8 %97 to i32
  %99 = icmp eq i32 %98, 58
  br i1 %99, label %100, label %109

100:                                              ; preds = %75
  %101 = load i32, ptr %9, align 4, !tbaa !39
  %102 = mul nsw i32 %101, 60
  %103 = sext i32 %102 to i64
  %104 = load ptr, ptr %7, align 8, !tbaa !11
  %105 = getelementptr inbounds i8, ptr %104, i64 1
  %106 = call i64 @strtol(ptr noundef %105, ptr noundef null, i32 noundef 10) #12
  %107 = add nsw i64 %103, %106
  %108 = trunc i64 %107 to i32
  store i32 %108, ptr %9, align 4, !tbaa !39
  br label %116

109:                                              ; preds = %75
  %110 = load i32, ptr %9, align 4, !tbaa !39
  %111 = sdiv i32 %110, 100
  %112 = mul nsw i32 %111, 60
  %113 = load i32, ptr %9, align 4, !tbaa !39
  %114 = srem i32 %113, 100
  %115 = add nsw i32 %112, %114
  store i32 %115, ptr %9, align 4, !tbaa !39
  br label %116

116:                                              ; preds = %109, %100
  %117 = load ptr, ptr %5, align 8, !tbaa !11
  %118 = getelementptr inbounds [10 x %struct.regmatch_t], ptr %8, i64 0, i64 3
  %119 = getelementptr inbounds nuw %struct.regmatch_t, ptr %118, i32 0, i32 0
  %120 = load i32, ptr %119, align 8, !tbaa !223
  %121 = sext i32 %120 to i64
  %122 = getelementptr inbounds i8, ptr %117, i64 %121
  %123 = load i8, ptr %122, align 1, !tbaa !57
  %124 = sext i8 %123 to i32
  %125 = icmp eq i32 %124, 45
  br i1 %125, label %126, label %129

126:                                              ; preds = %116
  %127 = load i32, ptr %9, align 4, !tbaa !39
  %128 = sub nsw i32 0, %127
  store i32 %128, ptr %9, align 4, !tbaa !39
  br label %129

129:                                              ; preds = %126, %116
  %130 = load i32, ptr %11, align 4, !tbaa !39
  %131 = mul nsw i32 %130, 60
  %132 = load i32, ptr %12, align 4, !tbaa !39
  %133 = add nsw i32 %131, %132
  %134 = load i32, ptr %9, align 4, !tbaa !39
  %135 = sub nsw i32 %133, %134
  %136 = load i32, ptr %10, align 4, !tbaa !39
  %137 = mul nsw i32 %136, 60
  %138 = icmp eq i32 %135, %137
  %139 = zext i1 %138 to i32
  store i32 %139, ptr %2, align 4
  store i32 1, ptr %14, align 4
  br label %140

140:                                              ; preds = %129, %74, %56, %45, %36
  call void @llvm.lifetime.end.p0(i64 4, ptr %13) #12
  call void @llvm.lifetime.end.p0(i64 4, ptr %12) #12
  call void @llvm.lifetime.end.p0(i64 4, ptr %11) #12
  call void @llvm.lifetime.end.p0(i64 4, ptr %10) #12
  call void @llvm.lifetime.end.p0(i64 4, ptr %9) #12
  call void @llvm.lifetime.end.p0(i64 80, ptr %8) #12
  call void @llvm.lifetime.end.p0(i64 8, ptr %7) #12
  call void @llvm.lifetime.end.p0(i64 8, ptr %6) #12
  call void @llvm.lifetime.end.p0(i64 8, ptr %5) #12
  call void @llvm.lifetime.end.p0(i64 65, ptr %4) #12
  %141 = load i32, ptr %2, align 4
  ret i32 %141
}