; Function Attrs: nounwind uwtable
define internal fastcc range(i32 0, 2) i32 @has_epoch_timestamp(ptr noundef %0) unnamed_addr #0 {
  %2 = alloca [65 x i8], align 16
  %3 = alloca ptr, align 8
  %4 = alloca [10 x %struct.regmatch_t], align 16
  call void @llvm.lifetime.start.p0(i64 65, ptr nonnull %2) #21
  call void @llvm.memcpy.p0.p0.i64(ptr noundef nonnull align 16 dereferenceable(65) %2, ptr noundef nonnull align 16 dereferenceable(65) @__const.has_epoch_timestamp.stamp_regexp, i64 65, i1 false)
  call void @llvm.lifetime.start.p0(i64 8, ptr nonnull %3) #21
  call void @llvm.lifetime.start.p0(i64 80, ptr nonnull %4) #21
  br label %5

5:                                                ; preds = %9, %1
  %.041 = phi ptr [ null, %1 ], [ %.1, %9 ]
  %.016 = phi ptr [ %0, %1 ], [ %10, %9 ]
  %6 = load i8, ptr %.016, align 1, !tbaa !53
  switch i8 %6, label %9 [
    i8 10, label %11
    i8 9, label %7
  ]

7:                                                ; preds = %5
  %8 = getelementptr inbounds nuw i8, ptr %.016, i64 1
  br label %9

9:                                                ; preds = %5, %7
  %.1 = phi ptr [ %.041, %5 ], [ %8, %7 ]
  %10 = getelementptr inbounds nuw i8, ptr %.016, i64 1
  br label %5, !llvm.loop !220

11:                                               ; preds = %5
  %.not22 = icmp eq ptr %.041, null
  br i1 %.not22, label %skip_prefix.exit30, label %.preheader.preheader

.preheader.preheader:                             ; preds = %11
  %scevgep = getelementptr i8, ptr %.041, i64 11
  br label %.preheader

.preheader:                                       ; preds = %.preheader.preheader, %12
  %.07.i = phi ptr [ %14, %12 ], [ %.041, %.preheader.preheader ]
  %.06.i.idx = phi i64 [ %.06.i.add, %12 ], [ 0, %.preheader.preheader ]
  %exitcond = icmp eq i64 %.06.i.idx, 11
  br i1 %exitcond, label %skip_prefix.exit.thread, label %12

12:                                               ; preds = %.preheader
  %.06.i.ptr = getelementptr inbounds nuw i8, ptr @.str.148, i64 %.06.i.idx
  %13 = load i8, ptr %.06.i.ptr, align 1, !tbaa !53
  %14 = getelementptr inbounds nuw i8, ptr %.07.i, i64 1
  %15 = load i8, ptr %.07.i, align 1, !tbaa !53
  %.06.i.add = add nuw nsw i64 %.06.i.idx, 1
  %16 = icmp eq i8 %15, %13
  br i1 %16, label %.preheader, label %skip_prefix.exit, !llvm.loop !115

skip_prefix.exit:                                 ; preds = %12, %17
  %.07.i27 = phi ptr [ %19, %17 ], [ %.041, %12 ]
  %.06.i28.idx = phi i64 [ %.06.i28.add, %17 ], [ 0, %12 ]
  %exitcond53 = icmp eq i64 %.06.i28.idx, 11
  br i1 %exitcond53, label %skip_prefix.exit.thread, label %17

17:                                               ; preds = %skip_prefix.exit
  %.06.i28.ptr = getelementptr inbounds nuw i8, ptr @.str.149, i64 %.06.i28.idx
  %18 = load i8, ptr %.06.i28.ptr, align 1, !tbaa !53
  %19 = getelementptr inbounds nuw i8, ptr %.07.i27, i64 1
  %20 = load i8, ptr %.07.i27, align 1, !tbaa !53
  %.06.i28.add = add nuw nsw i64 %.06.i28.idx, 1
  %21 = icmp eq i8 %20, %18
  br i1 %21, label %skip_prefix.exit, label %skip_prefix.exit30, !llvm.loop !115

skip_prefix.exit.thread:                          ; preds = %.preheader, %skip_prefix.exit
  %.018 = phi i32 [ 0, %skip_prefix.exit ], [ 1440, %.preheader ]
  %22 = load ptr, ptr @has_epoch_timestamp.stamp, align 8, !tbaa !221
  %.not23 = icmp eq ptr %22, null
  br i1 %.not23, label %23, label %30

23:                                               ; preds = %skip_prefix.exit.thread
  %24 = tail call ptr @xmalloc(i64 noundef 64) #21
  store ptr %24, ptr @has_epoch_timestamp.stamp, align 8, !tbaa !221
  %25 = call i32 @regcomp(ptr noundef %24, ptr noundef nonnull %2, i32 noundef 1) #21
  %.not24 = icmp eq i32 %25, 0
  br i1 %.not24, label %._crit_edge, label %26

._crit_edge:                                      ; preds = %23
  %.pre = load ptr, ptr @has_epoch_timestamp.stamp, align 8, !tbaa !221
  br label %30

26:                                               ; preds = %23
  %27 = load i32, ptr @git_gettext_enabled, align 4, !tbaa !34
  %.not4.i = icmp eq i32 %27, 0
  br i1 %.not4.i, label %_.exit, label %28

28:                                               ; preds = %26
  %29 = call ptr @dcgettext(ptr noundef null, ptr noundef nonnull @.str.150, i32 noundef 5) #21
  br label %_.exit

_.exit:                                           ; preds = %26, %28
  %.0.i = phi ptr [ %29, %28 ], [ @.str.150, %26 ]
  call void (ptr, ...) @warning(ptr noundef %.0.i, ptr noundef nonnull %2) #21
  br label %skip_prefix.exit30

30:                                               ; preds = %._crit_edge, %skip_prefix.exit.thread
  %31 = phi ptr [ %.pre, %._crit_edge ], [ %22, %skip_prefix.exit.thread ]
  %32 = call i32 @regexec(ptr noundef %31, ptr noundef %scevgep, i64 noundef 10, ptr noundef nonnull %4, i32 noundef 0) #21
  switch i32 %32, label %33 [
    i32 0, label %37
    i32 1, label %skip_prefix.exit30
  ]

33:                                               ; preds = %30
  %34 = load i32, ptr @git_gettext_enabled, align 4, !tbaa !34
  %.not4.i31 = icmp eq i32 %34, 0
  br i1 %.not4.i31, label %_.exit33, label %35

35:                                               ; preds = %33
  %36 = call ptr @dcgettext(ptr noundef null, ptr noundef nonnull @.str.151, i32 noundef 5) #21
  br label %_.exit33

_.exit33:                                         ; preds = %33, %35
  %.0.i32 = phi ptr [ %36, %35 ], [ @.str.151, %33 ]
  call void (ptr, ...) @warning(ptr noundef %.0.i32, i32 noundef %32, ptr noundef %scevgep) #21
  br label %skip_prefix.exit30

37:                                               ; preds = %30
  %38 = call i64 @strtol(ptr noundef captures(none) %scevgep, ptr noundef null, i32 noundef 10) #21
  %39 = trunc i64 %38 to i32
  %40 = getelementptr inbounds nuw i8, ptr %4, i64 8
  %41 = load i32, ptr %40, align 8, !tbaa !223
  %42 = sext i32 %41 to i64
  %43 = getelementptr inbounds i8, ptr %scevgep, i64 %42
  %44 = call i64 @strtol(ptr noundef captures(none) %43, ptr noundef null, i32 noundef 10) #21
  %45 = trunc i64 %44 to i32
  %46 = getelementptr inbounds nuw i8, ptr %4, i64 24
  %47 = load i32, ptr %46, align 8, !tbaa !223
  %48 = sext i32 %47 to i64
  %49 = getelementptr inbounds i8, ptr %scevgep, i64 %48
  %50 = getelementptr inbounds nuw i8, ptr %49, i64 1
  %51 = call i64 @strtol(ptr noundef nonnull %50, ptr noundef nonnull %3, i32 noundef 10) #21
  %52 = load ptr, ptr %3, align 8, !tbaa !32
  %53 = load i8, ptr %52, align 1, !tbaa !53
  %54 = icmp eq i8 %53, 58
  br i1 %54, label %55, label %61

55:                                               ; preds = %37
  %56 = mul i64 %51, 60
  %57 = getelementptr inbounds nuw i8, ptr %52, i64 1
  %58 = call i64 @strtol(ptr noundef nonnull captures(none) %57, ptr noundef null, i32 noundef 10) #21
  %59 = add i64 %58, %56
  %60 = trunc i64 %59 to i32
  br label %67

61:                                               ; preds = %37
  %62 = trunc i64 %51 to i32
  %63 = sdiv i32 %62, 100
  %64 = mul nsw i32 %63, 60
  %65 = srem i32 %62, 100
  %66 = add nsw i32 %64, %65
  br label %67

67:                                               ; preds = %61, %55
  %.017 = phi i32 [ %60, %55 ], [ %66, %61 ]
  %68 = load i32, ptr %46, align 8, !tbaa !223
  %69 = sext i32 %68 to i64
  %70 = getelementptr inbounds i8, ptr %scevgep, i64 %69
  %71 = load i8, ptr %70, align 1, !tbaa !53
  %72 = icmp eq i8 %71, 45
  %73 = sub i32 0, %.017
  %74 = select i1 %72, i32 %.017, i32 %73
  %75 = mul nsw i32 %39, 60
  %76 = add nsw i32 %75, %45
  %77 = add i32 %76, %74
  %78 = icmp eq i32 %77, %.018
  %79 = zext i1 %78 to i32
  br label %skip_prefix.exit30

skip_prefix.exit30:                               ; preds = %17, %_.exit33, %30, %11, %67, %_.exit
  %.0 = phi i32 [ %79, %67 ], [ 0, %_.exit ], [ 0, %11 ], [ 0, %30 ], [ 0, %_.exit33 ], [ 0, %17 ]
  call void @llvm.lifetime.end.p0(i64 80, ptr nonnull %4) #21
  call void @llvm.lifetime.end.p0(i64 8, ptr nonnull %3) #21
  call void @llvm.lifetime.end.p0(i64 65, ptr nonnull %2) #21
  ret i32 %.0
}